; Function Attrs: nounwind uwtable
define dso_local range(i32 0, 2) i32 @LZ4IO_decompressFilename(ptr noundef %0, ptr noundef %1, ptr noundef readonly captures(none) %2) local_unnamed_addr #11 {
  %4 = alloca %struct.dRess_t, align 8
  %5 = alloca i64, align 8
  call void @llvm.lifetime.start.p0(i64 64, ptr nonnull %4) #24
  call fastcc void @LZ4IO_createDResources(ptr dead_on_unwind noalias writable align 8 %4, ptr noundef %2)
  %6 = call i64 @TIME_getTime() #24
  %7 = call i64 @clock() #24
  %8 = sitofp i64 %7 to double
  %9 = fdiv double %8, 1.000000e+06
  call void @llvm.lifetime.start.p0(i64 8, ptr nonnull %5) #24
  store i64 0, ptr %5, align 8, !tbaa !32
  %10 = call fastcc i32 @LZ4IO_decompressDstFile(ptr noundef %5, ptr noundef nonnull byval(%struct.dRess_t) align 8 %4, ptr noundef %0, ptr noundef %1, ptr noundef %2)
  %.not = icmp eq i32 %10, 0
  br i1 %.not, label %LZ4IO_finalTimeDisplay.exit, label %11

11:                                               ; preds = %3
  %12 = load i64, ptr %5, align 8, !tbaa !32
  %13 = call i64 @TIME_clockSpan_ns(i64 %6) #24
  %14 = call i64 @clock() #24
  %15 = load i32, ptr @g_displayLevel, align 4, !tbaa !4
  %16 = icmp sgt i32 %15, 2
  br i1 %16, label %17, label %LZ4IO_finalTimeDisplay.exit

17:                                               ; preds = %11
  %18 = sitofp i64 %14 to double
  %19 = fdiv double %18, 1.000000e+06
  %20 = fsub double %19, %9
  %21 = call i64 @llvm.umax.i64(i64 %13, i64 1)
  %22 = uitofp i64 %21 to double
  %23 = fdiv double %22, 1.000000e+09
  %24 = load ptr, ptr @stderr, align 8, !tbaa !8
  %25 = uitofp i64 %12 to double
  %26 = fdiv double %25, %23
  %27 = fmul double %26, 0x3F50000000000000
  %28 = fmul double %27, 0x3F50000000000000
  %29 = fdiv double %20, %23
  %30 = fmul double %29, 1.000000e+02
  %31 = call i32 (ptr, ptr, ...) @fprintf(ptr noundef %24, ptr noundef nonnull @.str.49, double noundef %23, double noundef %28, double noundef %30) #26
  %32 = load i32, ptr @g_displayLevel, align 4, !tbaa !4
  %33 = icmp sgt i32 %32, 3
  br i1 %33, label %34, label %LZ4IO_finalTimeDisplay.exit

34:                                               ; preds = %17
  %35 = load ptr, ptr @stderr, align 8, !tbaa !8
  %36 = call i32 @fflush(ptr noundef %35)
  br label %LZ4IO_finalTimeDisplay.exit

LZ4IO_finalTimeDisplay.exit:                      ; preds = %34, %17, %11, %3
  call fastcc void @LZ4IO_freeDResources(ptr noundef nonnull byval(%struct.dRess_t) align 8 %4)
  call void @llvm.lifetime.end.p0(i64 8, ptr nonnull %5) #24
  call void @llvm.lifetime.end.p0(i64 64, ptr nonnull %4) #24
  ret i32 %10
}